target datalayout = "e-m:e-p270:32:32-p271:32:32-p272:64:64-i64:64-i128:128-f80:128-n8:16:32:64-S128"
target triple = "x86_64-pc-linux-gnu"

%struct._packet_info = type { ptr, ptr, i32, i32, %struct.nstime_t, %struct.nstime_t, %struct.nstime_t, i8, ptr, ptr, ptr, ptr, %struct._address, %struct._address, %struct._address, %struct._address, %struct._address, %struct._address, i32, ptr, i8, [3 x i8], %struct.anon, i32, i32, i32, i32, ptr, i8, ptr, ptr, i16, i16, i32, i32, i16, i32, i32, ptr, ptr, ptr, i8, i8, i16, i16, i16, i32, i16, i16, ptr, ptr, ptr, ptr, ptr, i32, i32 }
%struct.nstime_t = type { i64, i32 }
%struct._address = type { i32, i32, ptr, ptr }
%struct.anon = type { i8, [3 x i8] }

@.str.28 = private unnamed_addr constant [9 x i8] c"Reserved\00", align 1
@hf_btsmp_authreq = internal global i32 0, align 4
@ett_btsmp_auth_req = internal global i32 0, align 4
@bonding_flag_vals = internal constant [3 x { i32, [4 x i8], ptr }] [{ i32, [4 x i8], ptr } { i32 0, [4 x i8] zeroinitializer, ptr @.str.105 }, { i32, [4 x i8], ptr } { i32 1, [4 x i8] zeroinitializer, ptr @.str.106 }, { i32, [4 x i8], ptr } zeroinitializer], align 16
@.str.118 = private unnamed_addr constant [10 x i8] c"<unknown>\00", align 1
@.str.122 = private unnamed_addr constant [10 x i8] c"AuthReq: \00", align 1
@hfx_btsmp_authreq = internal constant [7 x ptr] [ptr @hf_btsmp_reserved_flag, ptr @hf_btsmp_ct2_flag, ptr @hf_btsmp_keypress_flag, ptr @hf_btsmp_secure_connection_flag, ptr @hf_btsmp_mitm_flag, ptr @hf_btsmp_bonding_flags, ptr null], align 16
@.str.123 = private unnamed_addr constant [1 x i8] zeroinitializer, align 1
@.str.124 = private unnamed_addr constant [3 x i8] c", \00", align 1
@.str.125 = private unnamed_addr constant [5 x i8] c"MITM\00", align 1
@.str.126 = private unnamed_addr constant [17 x i8] c"SecureConnection\00", align 1
@.str.127 = private unnamed_addr constant [9 x i8] c"Keypress\00", align 1

; Function Attrs: null_pointer_is_valid sspstrong uwtable
define internal i32 @dissect_btsmp_auth_req(ptr noundef %0, i32 noundef %1, ptr noundef %2, ptr noundef %3) #0 {
  %5 = alloca ptr, align 8
  %6 = alloca i32, align 4
  %7 = alloca ptr, align 8
  %8 = alloca ptr, align 8
  %9 = alloca i8, align 1
  %10 = alloca ptr, align 8
  store ptr %0, ptr %5, align 8
  store i32 %1, ptr %6, align 4
  store ptr %2, ptr %7, align 8
  store ptr %3, ptr %8, align 8
  call void @llvm.lifetime.start.p0(i64 1, ptr %9) #3
  call void @llvm.lifetime.start.p0(i64 8, ptr %10) #3
  %11 = load ptr, ptr %7, align 8
  %12 = getelementptr inbounds nuw %struct._packet_info, ptr %11, i32 0, i32 1
  %13 = load ptr, ptr %12, align 8
  call void @col_append_str(ptr noundef %13, i32 noundef 25, ptr noundef @.str.122)
  %14 = load ptr, ptr %8, align 8
  %15 = load ptr, ptr %5, align 8
  %16 = load i32, ptr %6, align 4
  %17 = load i32, ptr @hf_btsmp_authreq, align 4
  %18 = load i32, ptr @ett_btsmp_auth_req, align 4
  %19 = call ptr @proto_tree_add_bitmask(ptr noundef %14, ptr noundef %15, i32 noundef %16, i32 noundef %17, i32 noundef %18, ptr noundef @hfx_btsmp_authreq, i32 noundef -2147483648)
  %20 = load ptr, ptr %5, align 8
  %21 = load i32, ptr %6, align 4
  %22 = call zeroext i8 @tvb_get_uint8(ptr noundef %20, i32 noundef %21)
  store i8 %22, ptr %9, align 1
  %23 = load i8, ptr %9, align 1
  %24 = zext i8 %23 to i32
  %25 = and i32 %24, 3
  %26 = call ptr @val_to_str_const(i32 noundef %25, ptr noundef @bonding_flag_vals, ptr noundef @.str.118)
  store ptr %26, ptr %10, align 8
  %27 = load ptr, ptr %7, align 8
  %28 = getelementptr inbounds nuw %struct._packet_info, ptr %27, i32 0, i32 1
  %29 = load ptr, ptr %28, align 8
  %30 = load ptr, ptr %10, align 8
  call void @col_append_sep_str(ptr noundef %29, i32 noundef 25, ptr noundef @.str.123, ptr noundef %30)
  %31 = load i8, ptr %9, align 1
  %32 = zext i8 %31 to i32
  %33 = and i32 %32, 4
  %34 = icmp ne i32 %33, 0
  br i1 %34, label %35, label %39

35:                                               ; preds = %4
  %36 = load ptr, ptr %7, align 8
  %37 = getelementptr inbounds nuw %struct._packet_info, ptr %36, i32 0, i32 1
  %38 = load ptr, ptr %37, align 8
  call void @col_append_sep_str(ptr noundef %38, i32 noundef 25, ptr noundef @.str.124, ptr noundef @.str.125)
  br label %39

39:                                               ; preds = %35, %4
  %40 = load i8, ptr %9, align 1
  %41 = zext i8 %40 to i32
  %42 = and i32 %41, 8
  %43 = icmp ne i32 %42, 0
  br i1 %43, label %44, label %48

44:                                               ; preds = %39
  %45 = load ptr, ptr %7, align 8
  %46 = getelementptr inbounds nuw %struct._packet_info, ptr %45, i32 0, i32 1
  %47 = load ptr, ptr %46, align 8
  call void @col_append_sep_str(ptr noundef %47, i32 noundef 25, ptr noundef @.str.124, ptr noundef @.str.126)
  br label %48

48:                                               ; preds = %44, %39
  %49 = load i8, ptr %9, align 1
  %50 = zext i8 %49 to i32
  %51 = and i32 %50, 16
  %52 = icmp ne i32 %51, 0
  br i1 %52, label %53, label %57

53:                                               ; preds = %48
  %54 = load ptr, ptr %7, align 8
  %55 = getelementptr inbounds nuw %struct._packet_info, ptr %54, i32 0, i32 1
  %56 = load ptr, ptr %55, align 8
  call void @col_append_sep_str(ptr noundef %56, i32 noundef 25, ptr noundef @.str.124, ptr noundef @.str.127)
  br label %57

57:                                               ; preds = %53, %48
  %58 = load i8, ptr %9, align 1
  %59 = zext i8 %58 to i32
  %60 = and i32 %59, 224
  %61 = icmp ne i32 %60, 0
  br i1 %61, label %62, label %66

62:                                               ; preds = %57
  %63 = load ptr, ptr %7, align 8
  %64 = getelementptr inbounds nuw %struct._packet_info, ptr %63, i32 0, i32 1
  %65 = load ptr, ptr %64, align 8
  call void @col_append_sep_str(ptr noundef %65, i32 noundef 25, ptr noundef @.str.124, ptr noundef @.str.28)
  br label %66

66:                                               ; preds = %62, %57
  %67 = load i32, ptr %6, align 4
  %68 = add i32 %67, 1
  call void @llvm.lifetime.end.p0(i64 8, ptr %10) #3
  call void @llvm.lifetime.end.p0(i64 1, ptr %9) #3
  ret i32 %68
}