; Function Attrs: null_pointer_is_valid sspstrong uwtable
define internal fastcc range(i32 2, 5) i32 @dissect_btsmp_auth_req(ptr noundef %0, i32 noundef range(i32 1, 4) %1, ptr noundef readonly captures(none) %2, ptr noundef %3) unnamed_addr #0 {
  %5 = getelementptr inbounds nuw i8, ptr %2, i64 8
  %6 = load ptr, ptr %5, align 8
  tail call void @col_append_str(ptr noundef %6, i32 noundef 25, ptr noundef nonnull @.str.122)
  %7 = load i32, ptr @hf_btsmp_authreq, align 4
  %8 = load i32, ptr @ett_btsmp_auth_req, align 4
  %9 = tail call ptr @proto_tree_add_bitmask(ptr noundef %3, ptr noundef %0, i32 noundef %1, i32 noundef %7, i32 noundef %8, ptr noundef nonnull @hfx_btsmp_authreq, i32 noundef -2147483648)
  %10 = tail call zeroext i8 @tvb_get_uint8(ptr noundef %0, i32 noundef %1)
  %11 = zext i8 %10 to i32
  %12 = and i32 %11, 3
  %13 = tail call ptr @val_to_str_const(i32 noundef %12, ptr noundef nonnull @bonding_flag_vals, ptr noundef nonnull @.str.118)
  %14 = load ptr, ptr %5, align 8
  tail call void @col_append_sep_str(ptr noundef %14, i32 noundef 25, ptr noundef nonnull @.str.123, ptr noundef %13)
  %15 = and i32 %11, 4
  %.not = icmp eq i32 %15, 0
  br i1 %.not, label %18, label %16

16:                                               ; preds = %4
  %17 = load ptr, ptr %5, align 8
  tail call void @col_append_sep_str(ptr noundef %17, i32 noundef 25, ptr noundef nonnull @.str.124, ptr noundef nonnull @.str.125)
  br label %18

18:                                               ; preds = %16, %4
  %19 = and i32 %11, 8
  %.not17 = icmp eq i32 %19, 0
  br i1 %.not17, label %22, label %20

20:                                               ; preds = %18
  %21 = load ptr, ptr %5, align 8
  tail call void @col_append_sep_str(ptr noundef %21, i32 noundef 25, ptr noundef nonnull @.str.124, ptr noundef nonnull @.str.126)
  br label %22

22:                                               ; preds = %20, %18
  %23 = and i32 %11, 16
  %.not18 = icmp eq i32 %23, 0
  br i1 %.not18, label %26, label %24

24:                                               ; preds = %22
  %25 = load ptr, ptr %5, align 8
  tail call void @col_append_sep_str(ptr noundef %25, i32 noundef 25, ptr noundef nonnull @.str.124, ptr noundef nonnull @.str.127)
  br label %26

26:                                               ; preds = %24, %22
  %.not19 = icmp ult i8 %10, 32
  br i1 %.not19, label %29, label %27

27:                                               ; preds = %26
  %28 = load ptr, ptr %5, align 8
  tail call void @col_append_sep_str(ptr noundef %28, i32 noundef 25, ptr noundef nonnull @.str.124, ptr noundef nonnull @.str.28)
  br label %29

29:                                               ; preds = %27, %26
  %30 = add nuw nsw i32 %1, 1
  ret i32 %30
}